; Function Attrs: mustprogress nofree norecurse nosync nounwind willreturn memory(argmem: readwrite) uwtable
define dso_local void @_ZN13StatusPrinter19EdgeRemovedFromPlanEPK4Edge(ptr noundef nonnull align 8 captures(none) dereferenceable(296) %0, ptr noundef readonly captures(none) %1) unnamed_addr #6 align 2 {
  %3 = getelementptr inbounds nuw i8, ptr %0, i64 24
  %4 = load i32, ptr %3, align 8, !tbaa !51
  %5 = add nsw i32 %4, -1
  store i32 %5, ptr %3, align 8, !tbaa !51
  %6 = getelementptr inbounds nuw i8, ptr %1, i64 160
  %7 = load i64, ptr %6, align 8, !tbaa !52
  %.not = icmp eq i64 %7, -1
  br i1 %.not, label %21, label %8

8:                                                ; preds = %2
  %9 = getelementptr inbounds nuw i8, ptr %0, i64 56
  %10 = load i32, ptr %9, align 8, !tbaa !64
  %11 = add nsw i32 %10, -1
  store i32 %11, ptr %9, align 8, !tbaa !64
  %12 = getelementptr inbounds nuw i8, ptr %0, i64 72
  %13 = load i32, ptr %12, align 8, !tbaa !34
  %14 = add nsw i32 %13, -1
  store i32 %14, ptr %12, align 8, !tbaa !34
  %15 = getelementptr inbounds nuw i8, ptr %0, i64 64
  %16 = load i64, ptr %15, align 8, !tbaa !11
  %17 = sub nsw i64 %16, %7
  store i64 %17, ptr %15, align 8, !tbaa !11
  %18 = getelementptr inbounds nuw i8, ptr %0, i64 80
  %19 = load i64, ptr %18, align 8, !tbaa !35
  %20 = sub nsw i64 %19, %7
  store i64 %20, ptr %18, align 8, !tbaa !35
  br label %25

21:                                               ; preds = %2
  %22 = getelementptr inbounds nuw i8, ptr %0, i64 88
  %23 = load i32, ptr %22, align 8, !tbaa !36
  %24 = add nsw i32 %23, -1
  store i32 %24, ptr %22, align 8, !tbaa !36
  br label %25

25:                                               ; preds = %21, %8
  ret void
}